target datalayout = "e-m:e-p270:32:32-p271:32:32-p272:64:64-i64:64-i128:128-f80:128-n8:16:32:64-S128"
target triple = "x86_64-pc-linux-gnu"

%struct.point = type { i32, i32 }
%struct.box = type { %struct.point, %struct.point }

; Function Attrs: nounwind uwtable
define internal i32 @distY(ptr noundef %0, ptr noundef %1) #0 {
  %3 = alloca ptr, align 8
  %4 = alloca ptr, align 8
  store ptr %0, ptr %3, align 8, !tbaa !51
  store ptr %1, ptr %4, align 8, !tbaa !51
  %5 = load ptr, ptr %3, align 8, !tbaa !51
  %6 = getelementptr inbounds nuw %struct.box, ptr %5, i32 0, i32 1
  %7 = getelementptr inbounds nuw %struct.point, ptr %6, i32 0, i32 1
  %8 = load i32, ptr %7, align 4, !tbaa !63
  %9 = load ptr, ptr %3, align 8, !tbaa !51
  %10 = getelementptr inbounds nuw %struct.box, ptr %9, i32 0, i32 0
  %11 = getelementptr inbounds nuw %struct.point, ptr %10, i32 0, i32 1
  %12 = load i32, ptr %11, align 4, !tbaa !61
  %13 = sub nsw i32 %8, %12
  %14 = load ptr, ptr %4, align 8, !tbaa !51
  %15 = getelementptr inbounds nuw %struct.box, ptr %14, i32 0, i32 1
  %16 = getelementptr inbounds nuw %struct.point, ptr %15, i32 0, i32 1
  %17 = load i32, ptr %16, align 4, !tbaa !63
  %18 = load ptr, ptr %4, align 8, !tbaa !51
  %19 = getelementptr inbounds nuw %struct.box, ptr %18, i32 0, i32 0
  %20 = getelementptr inbounds nuw %struct.point, ptr %19, i32 0, i32 1
  %21 = load i32, ptr %20, align 4, !tbaa !61
  %22 = sub nsw i32 %17, %21
  %23 = add nsw i32 %13, %22
  %24 = sdiv i32 %23, 2
  ret i32 %24
}