; Function Attrs: mustprogress nofree norecurse nosync nounwind willreturn memory(argmem: read) uwtable
define internal range(i32 -1073741824, 1073741824) i32 @distY(ptr noundef readonly captures(none) %0, ptr noundef readonly captures(none) %1) #4 {
  %3 = getelementptr inbounds nuw i8, ptr %0, i64 12
  %4 = load i32, ptr %3, align 4, !tbaa !71
  %5 = getelementptr inbounds nuw i8, ptr %0, i64 4
  %6 = load i32, ptr %5, align 4, !tbaa !70
  %7 = getelementptr inbounds nuw i8, ptr %1, i64 12
  %8 = load i32, ptr %7, align 4, !tbaa !71
  %9 = getelementptr inbounds nuw i8, ptr %1, i64 4
  %10 = load i32, ptr %9, align 4, !tbaa !70
  %11 = add i32 %4, %8
  %12 = add i32 %6, %10
  %13 = sub i32 %11, %12
  %14 = sdiv i32 %13, 2
  ret i32 %14
}